target datalayout = "e-m:e-p270:32:32-p271:32:32-p272:64:64-i64:64-i128:128-f80:128-n8:16:32:64-S128"
target triple = "x86_64-pc-linux-gnu"

%struct.AVFilterContext = type { ptr, ptr, ptr, ptr, ptr, i32, ptr, ptr, i32, ptr, ptr, i32, i32, ptr, ptr, ptr, ptr, i32, ptr, i32, i32 }
%struct.DCTdnoizContext = type { ptr, ptr, [8 x ptr], [8 x [1 x double]], i32, i32, i32, float, float, [2 x [3 x ptr]], [8 x ptr], ptr, i32, i32, i32, i32, i32, ptr, ptr, ptr }

; Function Attrs: cold nounwind optsize uwtable
define internal void @uninit(ptr noundef %0) #0 {
  %2 = alloca ptr, align 8
  %3 = alloca i32, align 4
  %4 = alloca ptr, align 8
  store ptr %0, ptr %2, align 8, !tbaa !4
  call void @llvm.lifetime.start.p0(i64 4, ptr %3) #11
  call void @llvm.lifetime.start.p0(i64 8, ptr %4) #11
  %5 = load ptr, ptr %2, align 8, !tbaa !4
  %6 = getelementptr inbounds nuw %struct.AVFilterContext, ptr %5, i32 0, i32 9
  %7 = load ptr, ptr %6, align 8, !tbaa !9
  store ptr %7, ptr %4, align 8, !tbaa !22
  %8 = load ptr, ptr %4, align 8, !tbaa !22
  %9 = getelementptr inbounds nuw %struct.DCTdnoizContext, ptr %8, i32 0, i32 11
  call void @av_freep(ptr noundef %9)
  store i32 0, ptr %3, align 4, !tbaa !35
  br label %10

10:                                               ; preds = %32, %1
  %11 = load i32, ptr %3, align 4, !tbaa !35
  %12 = icmp slt i32 %11, 2
  br i1 %12, label %13, label %35

13:                                               ; preds = %10
  %14 = load ptr, ptr %4, align 8, !tbaa !22
  %15 = getelementptr inbounds nuw %struct.DCTdnoizContext, ptr %14, i32 0, i32 9
  %16 = load i32, ptr %3, align 4, !tbaa !35
  %17 = sext i32 %16 to i64
  %18 = getelementptr inbounds [2 x [3 x ptr]], ptr %15, i64 0, i64 %17
  %19 = getelementptr inbounds [3 x ptr], ptr %18, i64 0, i64 0
  call void @av_freep(ptr noundef %19)
  %20 = load ptr, ptr %4, align 8, !tbaa !22
  %21 = getelementptr inbounds nuw %struct.DCTdnoizContext, ptr %20, i32 0, i32 9
  %22 = load i32, ptr %3, align 4, !tbaa !35
  %23 = sext i32 %22 to i64
  %24 = getelementptr inbounds [2 x [3 x ptr]], ptr %21, i64 0, i64 %23
  %25 = getelementptr inbounds [3 x ptr], ptr %24, i64 0, i64 1
  call void @av_freep(ptr noundef %25)
  %26 = load ptr, ptr %4, align 8, !tbaa !22
  %27 = getelementptr inbounds nuw %struct.DCTdnoizContext, ptr %26, i32 0, i32 9
  %28 = load i32, ptr %3, align 4, !tbaa !35
  %29 = sext i32 %28 to i64
  %30 = getelementptr inbounds [2 x [3 x ptr]], ptr %27, i64 0, i64 %29
  %31 = getelementptr inbounds [3 x ptr], ptr %30, i64 0, i64 2
  call void @av_freep(ptr noundef %31)
  br label %32

32:                                               ; preds = %13
  %33 = load i32, ptr %3, align 4, !tbaa !35
  %34 = add nsw i32 %33, 1
  store i32 %34, ptr %3, align 4, !tbaa !35
  br label %10, !llvm.loop !36

35:                                               ; preds = %10
  store i32 0, ptr %3, align 4, !tbaa !35
  br label %36

36:                                               ; preds = %54, %35
  %37 = load i32, ptr %3, align 4, !tbaa !35
  %38 = load ptr, ptr %4, align 8, !tbaa !22
  %39 = getelementptr inbounds nuw %struct.DCTdnoizContext, ptr %38, i32 0, i32 4
  %40 = load i32, ptr %39, align 8, !tbaa !38
  %41 = icmp slt i32 %37, %40
  br i1 %41, label %42, label %57

42:                                               ; preds = %36
  %43 = load ptr, ptr %4, align 8, !tbaa !22
  %44 = getelementptr inbounds nuw %struct.DCTdnoizContext, ptr %43, i32 0, i32 10
  %45 = load i32, ptr %3, align 4, !tbaa !35
  %46 = sext i32 %45 to i64
  %47 = getelementptr inbounds [8 x ptr], ptr %44, i64 0, i64 %46
  call void @av_freep(ptr noundef %47)
  %48 = load ptr, ptr %4, align 8, !tbaa !22
  %49 = getelementptr inbounds nuw %struct.DCTdnoizContext, ptr %48, i32 0, i32 2
  %50 = load i32, ptr %3, align 4, !tbaa !35
  %51 = sext i32 %50 to i64
  %52 = getelementptr inbounds [8 x ptr], ptr %49, i64 0, i64 %51
  %53 = load ptr, ptr %52, align 8, !tbaa !39
  call void @av_expr_free(ptr noundef %53)
  br label %54

54:                                               ; preds = %42
  %55 = load i32, ptr %3, align 4, !tbaa !35
  %56 = add nsw i32 %55, 1
  store i32 %56, ptr %3, align 4, !tbaa !35
  br label %36, !llvm.loop !41

57:                                               ; preds = %36
  call void @llvm.lifetime.end.p0(i64 8, ptr %4) #11
  call void @llvm.lifetime.end.p0(i64 4, ptr %3) #11
  ret void
}