; Function Attrs: cold nounwind optsize uwtable
define internal void @uninit(ptr noundef readonly captures(none) %0) #0 {
.preheader.critedge:
  %1 = getelementptr inbounds nuw i8, ptr %0, i64 72
  %2 = load ptr, ptr %1, align 8, !tbaa !4
  %3 = getelementptr inbounds nuw i8, ptr %2, i64 280
  tail call void @av_freep(ptr noundef nonnull %3) #13
  %4 = getelementptr inbounds nuw i8, ptr %2, i64 168
  tail call void @av_freep(ptr noundef nonnull %4) #13
  %5 = getelementptr inbounds nuw i8, ptr %2, i64 176
  tail call void @av_freep(ptr noundef nonnull %5) #13
  %6 = getelementptr inbounds nuw i8, ptr %2, i64 184
  tail call void @av_freep(ptr noundef nonnull %6) #13
  %7 = getelementptr inbounds nuw i8, ptr %2, i64 192
  tail call void @av_freep(ptr noundef nonnull %7) #13
  %8 = getelementptr inbounds nuw i8, ptr %2, i64 200
  tail call void @av_freep(ptr noundef nonnull %8) #13
  %9 = getelementptr inbounds nuw i8, ptr %2, i64 208
  tail call void @av_freep(ptr noundef nonnull %9) #13
  %10 = getelementptr inbounds nuw i8, ptr %2, i64 144
  %11 = load i32, ptr %10, align 8, !tbaa !31
  %12 = icmp sgt i32 %11, 0
  br i1 %12, label %.lr.ph, label %._crit_edge

.lr.ph:                                           ; preds = %.preheader.critedge
  %13 = getelementptr inbounds nuw i8, ptr %2, i64 216
  %14 = getelementptr inbounds nuw i8, ptr %2, i64 16
  br label %15

15:                                               ; preds = %.lr.ph, %15
  %indvars.iv19 = phi i64 [ 0, %.lr.ph ], [ %indvars.iv.next20, %15 ]
  %16 = getelementptr inbounds nuw [8 x ptr], ptr %13, i64 0, i64 %indvars.iv19
  tail call void @av_freep(ptr noundef nonnull %16) #13
  %17 = getelementptr inbounds nuw [8 x ptr], ptr %14, i64 0, i64 %indvars.iv19
  %18 = load ptr, ptr %17, align 8, !tbaa !32
  tail call void @av_expr_free(ptr noundef %18) #13
  %indvars.iv.next20 = add nuw nsw i64 %indvars.iv19, 1
  %19 = load i32, ptr %10, align 8, !tbaa !31
  %20 = sext i32 %19 to i64
  %21 = icmp slt i64 %indvars.iv.next20, %20
  br i1 %21, label %15, label %._crit_edge, !llvm.loop !34

._crit_edge:                                      ; preds = %15, %.preheader.critedge
  ret void
}